target datalayout = "e-m:e-p270:32:32-p271:32:32-p272:64:64-i64:64-i128:128-f80:128-n8:16:32:64-S128"
target triple = "x86_64-pc-linux-gnu"

%struct.lexbor_array_obj_t = type { ptr, i64, i64, i64 }

; Function Attrs: nounwind uwtable
define hidden ptr @lexbor_array_obj_pop(ptr noundef %0) #0 {
  %2 = alloca ptr, align 8
  %3 = alloca ptr, align 8
  store ptr %0, ptr %3, align 8
  %4 = load ptr, ptr %3, align 8
  %5 = getelementptr inbounds %struct.lexbor_array_obj_t, ptr %4, i32 0, i32 2
  %6 = load i64, ptr %5, align 8
  %7 = icmp eq i64 %6, 0
  br i1 %7, label %8, label %9

8:                                                ; preds = %1
  store ptr null, ptr %2, align 8
  br label %25

9:                                                ; preds = %1
  %10 = load ptr, ptr %3, align 8
  %11 = getelementptr inbounds %struct.lexbor_array_obj_t, ptr %10, i32 0, i32 2
  %12 = load i64, ptr %11, align 8
  %13 = add i64 %12, -1
  store i64 %13, ptr %11, align 8
  %14 = load ptr, ptr %3, align 8
  %15 = getelementptr inbounds %struct.lexbor_array_obj_t, ptr %14, i32 0, i32 0
  %16 = load ptr, ptr %15, align 8
  %17 = load ptr, ptr %3, align 8
  %18 = getelementptr inbounds %struct.lexbor_array_obj_t, ptr %17, i32 0, i32 2
  %19 = load i64, ptr %18, align 8
  %20 = load ptr, ptr %3, align 8
  %21 = getelementptr inbounds %struct.lexbor_array_obj_t, ptr %20, i32 0, i32 3
  %22 = load i64, ptr %21, align 8
  %23 = mul i64 %19, %22
  %24 = getelementptr inbounds i8, ptr %16, i64 %23
  store ptr %24, ptr %2, align 8
  br label %25

25:                                               ; preds = %9, %8
  %26 = load ptr, ptr %2, align 8
  ret ptr %26
}