; Function Attrs: mustprogress nofree norecurse nosync nounwind willreturn memory(argmem: readwrite) uwtable
define hidden ptr @lexbor_array_obj_pop(ptr nocapture noundef %0) local_unnamed_addr #4 {
  %2 = getelementptr inbounds i8, ptr %0, i64 16
  %3 = load i64, ptr %2, align 8
  %4 = icmp eq i64 %3, 0
  br i1 %4, label %12, label %5

5:                                                ; preds = %1
  %6 = add i64 %3, -1
  store i64 %6, ptr %2, align 8
  %7 = load ptr, ptr %0, align 8
  %8 = getelementptr inbounds i8, ptr %0, i64 24
  %9 = load i64, ptr %8, align 8
  %10 = mul i64 %9, %6
  %11 = getelementptr inbounds i8, ptr %7, i64 %10
  br label %12

12:                                               ; preds = %1, %5
  %.0 = phi ptr [ %11, %5 ], [ null, %1 ]
  ret ptr %.0
}